target datalayout = "e-m:e-p270:32:32-p271:32:32-p272:64:64-i64:64-i128:128-f80:128-n8:16:32:64-S128"
target triple = "x86_64-pc-linux-gnu"

%struct.JSValue = type { %union.JSValueUnion, i64 }
%union.JSValueUnion = type { double }

; Function Attrs: nounwind uwtable
define internal i64 @js_get_errno(i64 noundef %0) #0 {
  %2 = alloca i64, align 8
  store i64 %0, ptr %2, align 8
  %3 = load i64, ptr %2, align 8
  %4 = icmp eq i64 %3, -1
  br i1 %4, label %5, label %10

5:                                                ; preds = %1
  %6 = call ptr @__errno_location() #10
  %7 = load i32, ptr %6, align 4
  %8 = sub i32 0, %7
  %9 = sext i32 %8 to i64
  store i64 %9, ptr %2, align 8
  br label %10

10:                                               ; preds = %5, %1
  %11 = load i64, ptr %2, align 8
  ret i64 %11
}

; Function Attrs: nounwind uwtable
define internal { i64, i64 } @js_os_dup(ptr noundef %0, i64 %1, i64 %2, i32 noundef %3, ptr noundef %4) #0 {
  %6 = alloca %struct.JSValue, align 8
  %7 = alloca ptr, align 8
  %8 = alloca i32, align 4
  %9 = alloca %struct.JSValue, align 8
  %10 = alloca %struct.JSValue, align 8
  %11 = alloca ptr, align 8
  %12 = alloca i32, align 4
  %13 = alloca ptr, align 8
  %14 = alloca i32, align 4
  %15 = alloca i32, align 4
  %16 = getelementptr inbounds { i64, i64 }, ptr %10, i32 0, i32 0
  store i64 %1, ptr %16, align 8
  %17 = getelementptr inbounds { i64, i64 }, ptr %10, i32 0, i32 1
  store i64 %2, ptr %17, align 8
  store ptr %0, ptr %11, align 8
  store i32 %3, ptr %12, align 4
  store ptr %4, ptr %13, align 8
  %18 = load ptr, ptr %11, align 8
  %19 = load ptr, ptr %13, align 8
  %20 = getelementptr %struct.JSValue, ptr %19, i64 0
  %21 = getelementptr inbounds { i64, i64 }, ptr %20, i32 0, i32 0
  %22 = load i64, ptr %21, align 8
  %23 = getelementptr inbounds { i64, i64 }, ptr %20, i32 0, i32 1
  %24 = load i64, ptr %23, align 8
  %25 = call i32 @JS_ToInt32(ptr noundef %18, ptr noundef %14, i64 %22, i64 %24)
  %26 = icmp ne i32 %25, 0
  br i1 %26, label %27, label %30

27:                                               ; preds = %5
  %28 = getelementptr inbounds %struct.JSValue, ptr %9, i32 0, i32 0
  store i32 0, ptr %28, align 8
  %29 = getelementptr inbounds %struct.JSValue, ptr %9, i32 0, i32 1
  store i64 6, ptr %29, align 8
  br label %45

30:                                               ; preds = %5
  %31 = load i32, ptr %14, align 4
  %32 = call i32 @dup(i32 noundef %31) #12
  %33 = sext i32 %32 to i64
  %34 = call i64 @js_get_errno(i64 noundef %33)
  %35 = trunc i64 %34 to i32
  store i32 %35, ptr %15, align 4
  %36 = load ptr, ptr %11, align 8
  %37 = load i32, ptr %15, align 4
  store ptr %36, ptr %7, align 8
  store i32 %37, ptr %8, align 4
  %38 = load i32, ptr %8, align 4
  store i32 %38, ptr %6, align 8
  %39 = getelementptr inbounds %struct.JSValue, ptr %6, i32 0, i32 1
  store i64 0, ptr %39, align 8
  %40 = load { i64, i64 }, ptr %6, align 8
  %41 = getelementptr inbounds { i64, i64 }, ptr %9, i32 0, i32 0
  %42 = extractvalue { i64, i64 } %40, 0
  store i64 %42, ptr %41, align 8
  %43 = getelementptr inbounds { i64, i64 }, ptr %9, i32 0, i32 1
  %44 = extractvalue { i64, i64 } %40, 1
  store i64 %44, ptr %43, align 8
  br label %45

45:                                               ; preds = %30, %27
  %46 = load { i64, i64 }, ptr %9, align 8
  ret { i64, i64 } %46
}